; Function Attrs: mustprogress uwtable
define hidden noundef nonnull align 8 dereferenceable(8) ptr @_ZNK11user_solver6solver7displayERSo(ptr nocapture noundef nonnull readonly align 8 dereferenceable(492) %this, ptr noundef nonnull returned align 8 dereferenceable(8) %out) unnamed_addr #3 align 2 personality ptr @__gxx_personality_v0 {
entry:
  %ref.tmp = alloca %struct.mk_pp, align 8
  %m_var2enode.i = getelementptr inbounds i8, ptr %this, i64 88
  %m = getelementptr inbounds i8, ptr %this, i64 72
  %m_empty.i.i = getelementptr inbounds i8, ptr %ref.tmp, i64 16
  br label %for.cond

for.cond:                                         ; preds = %invoke.cont6, %entry
  %indvars.iv = phi i64 [ %indvars.iv.next, %invoke.cont6 ], [ 0, %entry ]
  %0 = load ptr, ptr %m_var2enode.i, align 8
  %cmp.i.i = icmp eq ptr %0, null
  br i1 %cmp.i.i, label %_ZNK3euf13th_euf_solver12get_num_varsEv.exit, label %if.end.i.i

if.end.i.i:                                       ; preds = %for.cond
  %arrayidx.i.i = getelementptr inbounds i8, ptr %0, i64 -4
  %1 = load i32, ptr %arrayidx.i.i, align 4
  br label %_ZNK3euf13th_euf_solver12get_num_varsEv.exit

_ZNK3euf13th_euf_solver12get_num_varsEv.exit:     ; preds = %for.cond, %if.end.i.i
  %retval.0.i.i = phi i32 [ %1, %if.end.i.i ], [ 0, %for.cond ]
  %2 = zext i32 %retval.0.i.i to i64
  %cmp = icmp ult i64 %indvars.iv, %2
  br i1 %cmp, label %for.body, label %for.end

for.body:                                         ; preds = %_ZNK3euf13th_euf_solver12get_num_varsEv.exit
  %3 = trunc i64 %indvars.iv to i32
  %call2 = call noundef nonnull align 8 dereferenceable(8) ptr @_ZNSolsEj(ptr noundef nonnull align 8 dereferenceable(8) %out, i32 noundef %3)
  %call3 = call noundef nonnull align 8 dereferenceable(8) ptr @_ZStlsISt11char_traitsIcEERSt13basic_ostreamIcT_ES5_PKc(ptr noundef nonnull align 8 dereferenceable(8) %call2, ptr noundef nonnull @.str.7)
  %4 = load ptr, ptr %m_var2enode.i, align 8
  %arrayidx.i.i.i = getelementptr inbounds ptr, ptr %4, i64 %indvars.iv
  %5 = load ptr, ptr %arrayidx.i.i.i, align 8
  %6 = load ptr, ptr %5, align 8
  %7 = load ptr, ptr %m, align 8
  call void @_ZN11mk_ismt2_ppC2EP3astR11ast_managerjjPKc(ptr noundef nonnull align 8 dereferenceable(48) %ref.tmp, ptr noundef %6, ptr noundef nonnull align 8 dereferenceable(976) %7, i32 noundef 0, i32 noundef 0, ptr noundef null)
  %call5 = invoke noundef nonnull align 8 dereferenceable(8) ptr @_ZlsRSoRK11mk_ismt2_pp(ptr noundef nonnull align 8 dereferenceable(8) %call3, ptr noundef nonnull align 8 dereferenceable(48) %ref.tmp)
          to label %invoke.cont unwind label %lpad

invoke.cont:                                      ; preds = %for.body
  %call7 = invoke noundef nonnull align 8 dereferenceable(8) ptr @_ZStlsISt11char_traitsIcEERSt13basic_ostreamIcT_ES5_PKc(ptr noundef nonnull align 8 dereferenceable(8) %call5, ptr noundef nonnull @.str.8)
          to label %invoke.cont6 unwind label %lpad

invoke.cont6:                                     ; preds = %invoke.cont
  call void @_ZN10params_refD1Ev(ptr noundef nonnull align 8 dereferenceable(8) %m_empty.i.i) #19
  %indvars.iv.next = add nuw nsw i64 %indvars.iv, 1
  br label %for.cond, !llvm.loop !27

lpad:                                             ; preds = %invoke.cont, %for.body
  %8 = landingpad { ptr, i32 }
          cleanup
  call void @_ZN10params_refD1Ev(ptr noundef nonnull align 8 dereferenceable(8) %m_empty.i.i) #19
  resume { ptr, i32 } %8

for.end:                                          ; preds = %_ZNK3euf13th_euf_solver12get_num_varsEv.exit
  ret ptr %out
}